target datalayout = "e-m:e-p270:32:32-p271:32:32-p272:64:64-i64:64-i128:128-f80:128-n8:16:32:64-S128"
target triple = "x86_64-pc-linux-gnu"

; Function Attrs: inlinehint nounwind uwtable
define internal void @Abc_TruthSetHex(ptr noundef %0, i32 noundef %1, i32 noundef %2) #2 {
  %4 = alloca ptr, align 8
  %5 = alloca i32, align 4
  %6 = alloca i32, align 4
  store ptr %0, ptr %4, align 8, !tbaa !3
  store i32 %1, ptr %5, align 4, !tbaa !10
  store i32 %2, ptr %6, align 4, !tbaa !10
  %7 = load i32, ptr %6, align 4, !tbaa !10
  %8 = sext i32 %7 to i64
  %9 = load i32, ptr %5, align 4, !tbaa !10
  %10 = shl i32 %9, 2
  %11 = and i32 %10, 63
  %12 = zext i32 %11 to i64
  %13 = shl i64 %8, %12
  %14 = load ptr, ptr %4, align 8, !tbaa !3
  %15 = load i32, ptr %5, align 4, !tbaa !10
  %16 = ashr i32 %15, 4
  %17 = sext i32 %16 to i64
  %18 = getelementptr inbounds i64, ptr %14, i64 %17
  %19 = load i64, ptr %18, align 8, !tbaa !15
  %20 = or i64 %19, %13
  store i64 %20, ptr %18, align 8, !tbaa !15
  ret void
}

; Function Attrs: inlinehint nounwind uwtable
define internal i32 @Abc_TruthReadHexDigit(i8 noundef signext %0) #2 {
  %2 = alloca i32, align 4
  %3 = alloca i8, align 1
  store i8 %0, ptr %3, align 1, !tbaa !12
  %4 = load i8, ptr %3, align 1, !tbaa !12
  %5 = sext i8 %4 to i32
  %6 = icmp sge i32 %5, 48
  br i1 %6, label %7, label %15

7:                                                ; preds = %1
  %8 = load i8, ptr %3, align 1, !tbaa !12
  %9 = sext i8 %8 to i32
  %10 = icmp sle i32 %9, 57
  br i1 %10, label %11, label %15

11:                                               ; preds = %7
  %12 = load i8, ptr %3, align 1, !tbaa !12
  %13 = sext i8 %12 to i32
  %14 = sub nsw i32 %13, 48
  store i32 %14, ptr %2, align 4
  br label %42

15:                                               ; preds = %7, %1
  %16 = load i8, ptr %3, align 1, !tbaa !12
  %17 = sext i8 %16 to i32
  %18 = icmp sge i32 %17, 65
  br i1 %18, label %19, label %28

19:                                               ; preds = %15
  %20 = load i8, ptr %3, align 1, !tbaa !12
  %21 = sext i8 %20 to i32
  %22 = icmp sle i32 %21, 70
  br i1 %22, label %23, label %28

23:                                               ; preds = %19
  %24 = load i8, ptr %3, align 1, !tbaa !12
  %25 = sext i8 %24 to i32
  %26 = sub nsw i32 %25, 65
  %27 = add nsw i32 %26, 10
  store i32 %27, ptr %2, align 4
  br label %42

28:                                               ; preds = %19, %15
  %29 = load i8, ptr %3, align 1, !tbaa !12
  %30 = sext i8 %29 to i32
  %31 = icmp sge i32 %30, 97
  br i1 %31, label %32, label %41

32:                                               ; preds = %28
  %33 = load i8, ptr %3, align 1, !tbaa !12
  %34 = sext i8 %33 to i32
  %35 = icmp sle i32 %34, 102
  br i1 %35, label %36, label %41

36:                                               ; preds = %32
  %37 = load i8, ptr %3, align 1, !tbaa !12
  %38 = sext i8 %37 to i32
  %39 = sub nsw i32 %38, 97
  %40 = add nsw i32 %39, 10
  store i32 %40, ptr %2, align 4
  br label %42

41:                                               ; preds = %32, %28
  store i32 -1, ptr %2, align 4
  br label %42

42:                                               ; preds = %41, %36, %23, %11
  %43 = load i32, ptr %2, align 4
  ret i32 %43
}

; Function Attrs: nounwind uwtable
define void @Abc_TruthReadHex(ptr noundef %0, ptr noundef %1, i32 noundef %2) #0 {
  %4 = alloca ptr, align 8
  %5 = alloca ptr, align 8
  %6 = alloca i32, align 4
  %7 = alloca i32, align 4
  %8 = alloca i32, align 4
  %9 = alloca i32, align 4
  %10 = alloca i32, align 4
  %11 = alloca i8, align 1
  store ptr %0, ptr %4, align 8, !tbaa !3
  store ptr %1, ptr %5, align 8, !tbaa !8
  store i32 %2, ptr %6, align 4, !tbaa !10
  call void @llvm.lifetime.start.p0(i64 4, ptr %7) #12
  %12 = load i32, ptr %6, align 4, !tbaa !10
  %13 = icmp slt i32 %12, 7
  br i1 %13, label %14, label %15

14:                                               ; preds = %3
  br label %19

15:                                               ; preds = %3
  %16 = load i32, ptr %6, align 4, !tbaa !10
  %17 = sub nsw i32 %16, 6
  %18 = shl i32 1, %17
  br label %19

19:                                               ; preds = %15, %14
  %20 = phi i32 [ 1, %14 ], [ %18, %15 ]
  store i32 %20, ptr %7, align 4, !tbaa !10
  call void @llvm.lifetime.start.p0(i64 4, ptr %8) #12
  call void @llvm.lifetime.start.p0(i64 4, ptr %9) #12
  call void @llvm.lifetime.start.p0(i64 4, ptr %10) #12
  %21 = load i32, ptr %6, align 4, !tbaa !10
  %22 = icmp slt i32 %21, 7
  br i1 %22, label %23, label %27

23:                                               ; preds = %19
  %24 = load i32, ptr %6, align 4, !tbaa !10
  %25 = sub nsw i32 %24, 2
  %26 = shl i32 1, %25
  br label %30

27:                                               ; preds = %19
  %28 = load i32, ptr %7, align 4, !tbaa !10
  %29 = shl i32 %28, 4
  br label %30

30:                                               ; preds = %27, %23
  %31 = phi i32 [ %26, %23 ], [ %29, %27 ]
  store i32 %31, ptr %10, align 4, !tbaa !10
  call void @llvm.lifetime.start.p0(i64 1, ptr %11) #12
  %32 = load ptr, ptr %5, align 8, !tbaa !8
  %33 = getelementptr inbounds i8, ptr %32, i64 0
  %34 = load i8, ptr %33, align 1, !tbaa !12
  %35 = sext i8 %34 to i32
  %36 = icmp eq i32 %35, 48
  br i1 %36, label %37, label %46

37:                                               ; preds = %30
  %38 = load ptr, ptr %5, align 8, !tbaa !8
  %39 = getelementptr inbounds i8, ptr %38, i64 1
  %40 = load i8, ptr %39, align 1, !tbaa !12
  %41 = sext i8 %40 to i32
  %42 = icmp eq i32 %41, 120
  br i1 %42, label %43, label %46

43:                                               ; preds = %37
  %44 = load ptr, ptr %5, align 8, !tbaa !8
  %45 = getelementptr inbounds i8, ptr %44, i64 2
  store ptr %45, ptr %5, align 8, !tbaa !8
  br label %46

46:                                               ; preds = %43, %37, %30
  %47 = load ptr, ptr %5, align 8, !tbaa !8
  %48 = load i32, ptr %10, align 4, !tbaa !10
  %49 = sext i32 %48 to i64
  %50 = getelementptr inbounds i8, ptr %47, i64 %49
  %51 = load i8, ptr %50, align 1, !tbaa !12
  store i8 %51, ptr %11, align 1, !tbaa !12
  store i32 0, ptr %8, align 4, !tbaa !10
  br label %52

52:                                               ; preds = %69, %46
  %53 = load i32, ptr %8, align 4, !tbaa !10
  %54 = load i32, ptr %10, align 4, !tbaa !10
  %55 = icmp slt i32 %53, %54
  br i1 %55, label %56, label %72

56:                                               ; preds = %52
  %57 = load ptr, ptr %5, align 8, !tbaa !8
  %58 = load i32, ptr %10, align 4, !tbaa !10
  %59 = sub nsw i32 %58, 1
  %60 = load i32, ptr %8, align 4, !tbaa !10
  %61 = sub nsw i32 %59, %60
  %62 = sext i32 %61 to i64
  %63 = getelementptr inbounds i8, ptr %57, i64 %62
  %64 = load i8, ptr %63, align 1, !tbaa !12
  %65 = call i32 @Abc_TruthReadHexDigit(i8 noundef signext %64)
  store i32 %65, ptr %9, align 4, !tbaa !10
  %66 = load ptr, ptr %4, align 8, !tbaa !3
  %67 = load i32, ptr %8, align 4, !tbaa !10
  %68 = load i32, ptr %9, align 4, !tbaa !10
  call void @Abc_TruthSetHex(ptr noundef %66, i32 noundef %67, i32 noundef %68)
  br label %69

69:                                               ; preds = %56
  %70 = load i32, ptr %8, align 4, !tbaa !10
  %71 = add nsw i32 %70, 1
  store i32 %71, ptr %8, align 4, !tbaa !10
  br label %52, !llvm.loop !13

72:                                               ; preds = %52
  call void @llvm.lifetime.end.p0(i64 1, ptr %11) #12
  call void @llvm.lifetime.end.p0(i64 4, ptr %10) #12
  call void @llvm.lifetime.end.p0(i64 4, ptr %9) #12
  call void @llvm.lifetime.end.p0(i64 4, ptr %8) #12
  call void @llvm.lifetime.end.p0(i64 4, ptr %7) #12
  ret void
}