; Function Attrs: nofree norecurse nosync nounwind memory(argmem: readwrite) uwtable
define void @Abc_TruthReadHex(ptr noundef captures(none) %0, ptr noundef readonly captures(none) %1, i32 noundef %2) local_unnamed_addr #0 {
  %4 = icmp slt i32 %2, 7
  %5 = add nsw i32 %2, -2
  %6 = shl nuw nsw i32 1, %5
  %7 = add nsw i32 %2, -6
  %8 = shl i32 16, %7
  %9 = select i1 %4, i32 %6, i32 %8
  %10 = load i8, ptr %1, align 1, !tbaa !3
  %11 = icmp eq i8 %10, 48
  br i1 %11, label %12, label %16

12:                                               ; preds = %3
  %13 = getelementptr inbounds nuw i8, ptr %1, i64 1
  %14 = load i8, ptr %13, align 1, !tbaa !3
  %15 = icmp eq i8 %14, 120
  %spec.select.idx = select i1 %15, i64 2, i64 0
  %spec.select = getelementptr inbounds nuw i8, ptr %1, i64 %spec.select.idx
  br label %16

16:                                               ; preds = %12, %3
  %.0 = phi ptr [ %1, %3 ], [ %spec.select, %12 ]
  %17 = icmp sgt i32 %9, 0
  br i1 %17, label %.lr.ph.preheader, label %._crit_edge

.lr.ph.preheader:                                 ; preds = %16
  %18 = zext nneg i32 %9 to i64
  %wide.trip.count = zext nneg i32 %9 to i64
  %19 = getelementptr i8, ptr %.0, i64 %18
  br label %.lr.ph

.lr.ph:                                           ; preds = %.lr.ph.preheader, %Abc_TruthReadHexDigit.exit
  %indvars.iv = phi i64 [ 0, %.lr.ph.preheader ], [ %indvars.iv.next, %Abc_TruthReadHexDigit.exit ]
  %20 = xor i64 %indvars.iv, -1
  %21 = getelementptr i8, ptr %19, i64 %20
  %22 = load i8, ptr %21, align 1, !tbaa !3
  %23 = sext i8 %22 to i32
  %24 = add i8 %22, -48
  %or.cond.i = icmp ult i8 %24, 10
  br i1 %or.cond.i, label %25, label %27

25:                                               ; preds = %.lr.ph
  %26 = add nsw i32 %23, -48
  br label %Abc_TruthReadHexDigit.exit

27:                                               ; preds = %.lr.ph
  %28 = add i8 %22, -65
  %or.cond5.i = icmp ult i8 %28, 6
  br i1 %or.cond5.i, label %29, label %31

29:                                               ; preds = %27
  %30 = add nsw i32 %23, -55
  br label %Abc_TruthReadHexDigit.exit

31:                                               ; preds = %27
  %32 = add i8 %22, -97
  %or.cond8.i = icmp ult i8 %32, 6
  %33 = add nsw i32 %23, -87
  %spec.select.i = select i1 %or.cond8.i, i32 %33, i32 -1
  br label %Abc_TruthReadHexDigit.exit

Abc_TruthReadHexDigit.exit:                       ; preds = %25, %29, %31
  %.0.i = phi i32 [ %26, %25 ], [ %30, %29 ], [ %spec.select.i, %31 ]
  %34 = sext i32 %.0.i to i64
  %35 = shl i64 %indvars.iv, 2
  %36 = and i64 %35, 60
  %37 = shl i64 %34, %36
  %38 = lshr i64 %indvars.iv, 4
  %39 = and i64 %38, 268435455
  %40 = getelementptr inbounds nuw i64, ptr %0, i64 %39
  %41 = load i64, ptr %40, align 8, !tbaa !6
  %42 = or i64 %37, %41
  store i64 %42, ptr %40, align 8, !tbaa !6
  %indvars.iv.next = add nuw nsw i64 %indvars.iv, 1
  %exitcond.not = icmp eq i64 %indvars.iv.next, %wide.trip.count
  br i1 %exitcond.not, label %._crit_edge, label %.lr.ph, !llvm.loop !8

._crit_edge:                                      ; preds = %Abc_TruthReadHexDigit.exit, %16
  ret void
}